target datalayout = "e-m:e-p270:32:32-p271:32:32-p272:64:64-i64:64-i128:128-f80:128-n8:16:32:64-S128"
target triple = "x86_64-unknown-linux-gnu"

%"struct.msdfgen::Vector2" = type { double, double }

@_ZN7msdfgen13LinearSegmentC1ENS_7Vector2ES1_NS_9EdgeColorE = dso_local unnamed_addr alias void (ptr, double, double, double, double, i32), ptr @_ZN7msdfgen13LinearSegmentC2ENS_7Vector2ES1_NS_9EdgeColorE
@_ZN7msdfgen16QuadraticSegmentC1ENS_7Vector2ES1_S1_NS_9EdgeColorE = dso_local unnamed_addr alias void (ptr, double, double, double, double, double, double, i32), ptr @_ZN7msdfgen16QuadraticSegmentC2ENS_7Vector2ES1_S1_NS_9EdgeColorE

; Function Attrs: mustprogress nounwind uwtable
define linkonce_odr dso_local void @_ZN7msdfgen7Vector2C2Edd(ptr noundef nonnull align 8 dereferenceable(16) %this, double noundef %x, double noundef %y) unnamed_addr #4 comdat align 2 {
entry:
  %this.addr = alloca ptr, align 8
  %x.addr = alloca double, align 8
  %y.addr = alloca double, align 8
  store ptr %this, ptr %this.addr, align 8
  store double %x, ptr %x.addr, align 8
  store double %y, ptr %y.addr, align 8
  %this1 = load ptr, ptr %this.addr, align 8
  %x2 = getelementptr inbounds %"struct.msdfgen::Vector2", ptr %this1, i32 0, i32 0
  %0 = load double, ptr %x.addr, align 8
  store double %0, ptr %x2, align 8
  %y3 = getelementptr inbounds %"struct.msdfgen::Vector2", ptr %this1, i32 0, i32 1
  %1 = load double, ptr %y.addr, align 8
  store double %1, ptr %y3, align 8
  ret void
}

; Function Attrs: mustprogress nounwind uwtable
define linkonce_odr dso_local noundef double @_ZN7msdfgen12crossProductENS_7Vector2ES0_(double %a.coerce0, double %a.coerce1, double %b.coerce0, double %b.coerce1) #4 comdat {
entry:
  %a = alloca %"struct.msdfgen::Vector2", align 8
  %b = alloca %"struct.msdfgen::Vector2", align 8
  %0 = getelementptr inbounds { double, double }, ptr %a, i32 0, i32 0
  store double %a.coerce0, ptr %0, align 8
  %1 = getelementptr inbounds { double, double }, ptr %a, i32 0, i32 1
  store double %a.coerce1, ptr %1, align 8
  %2 = getelementptr inbounds { double, double }, ptr %b, i32 0, i32 0
  store double %b.coerce0, ptr %2, align 8
  %3 = getelementptr inbounds { double, double }, ptr %b, i32 0, i32 1
  store double %b.coerce1, ptr %3, align 8
  %x = getelementptr inbounds %"struct.msdfgen::Vector2", ptr %a, i32 0, i32 0
  %4 = load double, ptr %x, align 8
  %y = getelementptr inbounds %"struct.msdfgen::Vector2", ptr %b, i32 0, i32 1
  %5 = load double, ptr %y, align 8
  %y1 = getelementptr inbounds %"struct.msdfgen::Vector2", ptr %a, i32 0, i32 1
  %6 = load double, ptr %y1, align 8
  %x2 = getelementptr inbounds %"struct.msdfgen::Vector2", ptr %b, i32 0, i32 0
  %7 = load double, ptr %x2, align 8
  %mul3 = fmul double %6, %7
  %neg = fneg double %mul3
  %8 = call double @llvm.fmuladd.f64(double %4, double %5, double %neg)
  ret double %8
}

; Function Attrs: mustprogress uwtable
define linkonce_odr dso_local { double, double } @_ZN7msdfgenmiENS_7Vector2ES0_(double %a.coerce0, double %a.coerce1, double %b.coerce0, double %b.coerce1) #0 comdat {
entry:
  %retval = alloca %"struct.msdfgen::Vector2", align 8
  %a = alloca %"struct.msdfgen::Vector2", align 8
  %b = alloca %"struct.msdfgen::Vector2", align 8
  %0 = getelementptr inbounds { double, double }, ptr %a, i32 0, i32 0
  store double %a.coerce0, ptr %0, align 8
  %1 = getelementptr inbounds { double, double }, ptr %a, i32 0, i32 1
  store double %a.coerce1, ptr %1, align 8
  %2 = getelementptr inbounds { double, double }, ptr %b, i32 0, i32 0
  store double %b.coerce0, ptr %2, align 8
  %3 = getelementptr inbounds { double, double }, ptr %b, i32 0, i32 1
  store double %b.coerce1, ptr %3, align 8
  %x = getelementptr inbounds %"struct.msdfgen::Vector2", ptr %a, i32 0, i32 0
  %4 = load double, ptr %x, align 8
  %x1 = getelementptr inbounds %"struct.msdfgen::Vector2", ptr %b, i32 0, i32 0
  %5 = load double, ptr %x1, align 8
  %sub = fsub double %4, %5
  %y = getelementptr inbounds %"struct.msdfgen::Vector2", ptr %a, i32 0, i32 1
  %6 = load double, ptr %y, align 8
  %y2 = getelementptr inbounds %"struct.msdfgen::Vector2", ptr %b, i32 0, i32 1
  %7 = load double, ptr %y2, align 8
  %sub3 = fsub double %6, %7
  call void @_ZN7msdfgen7Vector2C2Edd(ptr noundef nonnull align 8 dereferenceable(16) %retval, double noundef %sub, double noundef %sub3)
  %8 = load { double, double }, ptr %retval, align 8
  ret { double, double } %8
}

; Function Attrs: mustprogress uwtable
define dso_local noundef ptr @_ZN7msdfgen11EdgeSegment6createENS_7Vector2ES1_S1_NS_9EdgeColorE(double %p0.coerce0, double %p0.coerce1, double %p1.coerce0, double %p1.coerce1, double %p2.coerce0, double %p2.coerce1, i32 noundef %edgeColor) #0 align 2 personality ptr @__gxx_personality_v0 {
entry:
  %retval = alloca ptr, align 8
  %p0 = alloca %"struct.msdfgen::Vector2", align 8
  %p1 = alloca %"struct.msdfgen::Vector2", align 8
  %p2 = alloca %"struct.msdfgen::Vector2", align 8
  %edgeColor.addr = alloca i32, align 4
  %agg.tmp = alloca %"struct.msdfgen::Vector2", align 8
  %agg.tmp1 = alloca %"struct.msdfgen::Vector2", align 8
  %agg.tmp2 = alloca %"struct.msdfgen::Vector2", align 8
  %agg.tmp3 = alloca %"struct.msdfgen::Vector2", align 8
  %agg.tmp4 = alloca %"struct.msdfgen::Vector2", align 8
  %agg.tmp5 = alloca %"struct.msdfgen::Vector2", align 8
  %agg.tmp9 = alloca %"struct.msdfgen::Vector2", align 8
  %agg.tmp10 = alloca %"struct.msdfgen::Vector2", align 8
  %exn.slot = alloca ptr, align 8
  %ehselector.slot = alloca i32, align 4
  %agg.tmp12 = alloca %"struct.msdfgen::Vector2", align 8
  %agg.tmp13 = alloca %"struct.msdfgen::Vector2", align 8
  %agg.tmp14 = alloca %"struct.msdfgen::Vector2", align 8
  %0 = getelementptr inbounds { double, double }, ptr %p0, i32 0, i32 0
  store double %p0.coerce0, ptr %0, align 8
  %1 = getelementptr inbounds { double, double }, ptr %p0, i32 0, i32 1
  store double %p0.coerce1, ptr %1, align 8
  %2 = getelementptr inbounds { double, double }, ptr %p1, i32 0, i32 0
  store double %p1.coerce0, ptr %2, align 8
  %3 = getelementptr inbounds { double, double }, ptr %p1, i32 0, i32 1
  store double %p1.coerce1, ptr %3, align 8
  %4 = getelementptr inbounds { double, double }, ptr %p2, i32 0, i32 0
  store double %p2.coerce0, ptr %4, align 8
  %5 = getelementptr inbounds { double, double }, ptr %p2, i32 0, i32 1
  store double %p2.coerce1, ptr %5, align 8
  store i32 %edgeColor, ptr %edgeColor.addr, align 4
  call void @llvm.memcpy.p0.p0.i64(ptr align 8 %agg.tmp1, ptr align 8 %p1, i64 16, i1 false)
  call void @llvm.memcpy.p0.p0.i64(ptr align 8 %agg.tmp2, ptr align 8 %p0, i64 16, i1 false)
  %6 = getelementptr inbounds { double, double }, ptr %agg.tmp1, i32 0, i32 0
  %7 = load double, ptr %6, align 8
  %8 = getelementptr inbounds { double, double }, ptr %agg.tmp1, i32 0, i32 1
  %9 = load double, ptr %8, align 8
  %10 = getelementptr inbounds { double, double }, ptr %agg.tmp2, i32 0, i32 0
  %11 = load double, ptr %10, align 8
  %12 = getelementptr inbounds { double, double }, ptr %agg.tmp2, i32 0, i32 1
  %13 = load double, ptr %12, align 8
  %call = call { double, double } @_ZN7msdfgenmiENS_7Vector2ES0_(double %7, double %9, double %11, double %13)
  %14 = getelementptr inbounds { double, double }, ptr %agg.tmp, i32 0, i32 0
  %15 = extractvalue { double, double } %call, 0
  store double %15, ptr %14, align 8
  %16 = getelementptr inbounds { double, double }, ptr %agg.tmp, i32 0, i32 1
  %17 = extractvalue { double, double } %call, 1
  store double %17, ptr %16, align 8
  call void @llvm.memcpy.p0.p0.i64(ptr align 8 %agg.tmp4, ptr align 8 %p2, i64 16, i1 false)
  call void @llvm.memcpy.p0.p0.i64(ptr align 8 %agg.tmp5, ptr align 8 %p1, i64 16, i1 false)
  %18 = getelementptr inbounds { double, double }, ptr %agg.tmp4, i32 0, i32 0
  %19 = load double, ptr %18, align 8
  %20 = getelementptr inbounds { double, double }, ptr %agg.tmp4, i32 0, i32 1
  %21 = load double, ptr %20, align 8
  %22 = getelementptr inbounds { double, double }, ptr %agg.tmp5, i32 0, i32 0
  %23 = load double, ptr %22, align 8
  %24 = getelementptr inbounds { double, double }, ptr %agg.tmp5, i32 0, i32 1
  %25 = load double, ptr %24, align 8
  %call6 = call { double, double } @_ZN7msdfgenmiENS_7Vector2ES0_(double %19, double %21, double %23, double %25)
  %26 = getelementptr inbounds { double, double }, ptr %agg.tmp3, i32 0, i32 0
  %27 = extractvalue { double, double } %call6, 0
  store double %27, ptr %26, align 8
  %28 = getelementptr inbounds { double, double }, ptr %agg.tmp3, i32 0, i32 1
  %29 = extractvalue { double, double } %call6, 1
  store double %29, ptr %28, align 8
  %30 = getelementptr inbounds { double, double }, ptr %agg.tmp, i32 0, i32 0
  %31 = load double, ptr %30, align 8
  %32 = getelementptr inbounds { double, double }, ptr %agg.tmp, i32 0, i32 1
  %33 = load double, ptr %32, align 8
  %34 = getelementptr inbounds { double, double }, ptr %agg.tmp3, i32 0, i32 0
  %35 = load double, ptr %34, align 8
  %36 = getelementptr inbounds { double, double }, ptr %agg.tmp3, i32 0, i32 1
  %37 = load double, ptr %36, align 8
  %call7 = call noundef double @_ZN7msdfgen12crossProductENS_7Vector2ES0_(double %31, double %33, double %35, double %37)
  %tobool = fcmp une double %call7, 0.000000e+00
  br i1 %tobool, label %if.end, label %if.then

if.then:                                          ; preds = %entry
  %call8 = call noalias noundef nonnull ptr @_Znwm(i64 noundef 48) #9
  call void @llvm.memcpy.p0.p0.i64(ptr align 8 %agg.tmp9, ptr align 8 %p0, i64 16, i1 false)
  call void @llvm.memcpy.p0.p0.i64(ptr align 8 %agg.tmp10, ptr align 8 %p2, i64 16, i1 false)
  %38 = load i32, ptr %edgeColor.addr, align 4
  %39 = getelementptr inbounds { double, double }, ptr %agg.tmp9, i32 0, i32 0
  %40 = load double, ptr %39, align 8
  %41 = getelementptr inbounds { double, double }, ptr %agg.tmp9, i32 0, i32 1
  %42 = load double, ptr %41, align 8
  %43 = getelementptr inbounds { double, double }, ptr %agg.tmp10, i32 0, i32 0
  %44 = load double, ptr %43, align 8
  %45 = getelementptr inbounds { double, double }, ptr %agg.tmp10, i32 0, i32 1
  %46 = load double, ptr %45, align 8
  invoke void @_ZN7msdfgen13LinearSegmentC1ENS_7Vector2ES1_NS_9EdgeColorE(ptr noundef nonnull align 8 dereferenceable(48) %call8, double %40, double %42, double %44, double %46, i32 noundef %38)
          to label %invoke.cont unwind label %lpad

invoke.cont:                                      ; preds = %if.then
  store ptr %call8, ptr %retval, align 8
  br label %return

lpad:                                             ; preds = %if.then
  %47 = landingpad { ptr, i32 }
          cleanup
  %48 = extractvalue { ptr, i32 } %47, 0
  store ptr %48, ptr %exn.slot, align 8
  %49 = extractvalue { ptr, i32 } %47, 1
  store i32 %49, ptr %ehselector.slot, align 4
  call void @_ZdlPv(ptr noundef %call8) #10
  br label %eh.resume

if.end:                                           ; preds = %entry
  %call11 = call noalias noundef nonnull ptr @_Znwm(i64 noundef 64) #9
  call void @llvm.memcpy.p0.p0.i64(ptr align 8 %agg.tmp12, ptr align 8 %p0, i64 16, i1 false)
  call void @llvm.memcpy.p0.p0.i64(ptr align 8 %agg.tmp13, ptr align 8 %p1, i64 16, i1 false)
  call void @llvm.memcpy.p0.p0.i64(ptr align 8 %agg.tmp14, ptr align 8 %p2, i64 16, i1 false)
  %50 = load i32, ptr %edgeColor.addr, align 4
  %51 = getelementptr inbounds { double, double }, ptr %agg.tmp12, i32 0, i32 0
  %52 = load double, ptr %51, align 8
  %53 = getelementptr inbounds { double, double }, ptr %agg.tmp12, i32 0, i32 1
  %54 = load double, ptr %53, align 8
  %55 = getelementptr inbounds { double, double }, ptr %agg.tmp13, i32 0, i32 0
  %56 = load double, ptr %55, align 8
  %57 = getelementptr inbounds { double, double }, ptr %agg.tmp13, i32 0, i32 1
  %58 = load double, ptr %57, align 8
  %59 = getelementptr inbounds { double, double }, ptr %agg.tmp14, i32 0, i32 0
  %60 = load double, ptr %59, align 8
  %61 = getelementptr inbounds { double, double }, ptr %agg.tmp14, i32 0, i32 1
  %62 = load double, ptr %61, align 8
  invoke void @_ZN7msdfgen16QuadraticSegmentC1ENS_7Vector2ES1_S1_NS_9EdgeColorE(ptr noundef nonnull align 8 dereferenceable(64) %call11, double %52, double %54, double %56, double %58, double %60, double %62, i32 noundef %50)
          to label %invoke.cont16 unwind label %lpad15

invoke.cont16:                                    ; preds = %if.end
  store ptr %call11, ptr %retval, align 8
  br label %return

lpad15:                                           ; preds = %if.end
  %63 = landingpad { ptr, i32 }
          cleanup
  %64 = extractvalue { ptr, i32 } %63, 0
  store ptr %64, ptr %exn.slot, align 8
  %65 = extractvalue { ptr, i32 } %63, 1
  store i32 %65, ptr %ehselector.slot, align 4
  call void @_ZdlPv(ptr noundef %call11) #10
  br label %eh.resume

return:                                           ; preds = %invoke.cont16, %invoke.cont
  %66 = load ptr, ptr %retval, align 8
  ret ptr %66

eh.resume:                                        ; preds = %lpad15, %lpad
  %exn = load ptr, ptr %exn.slot, align 8
  %sel = load i32, ptr %ehselector.slot, align 4
  %lpad.val = insertvalue { ptr, i32 } poison, ptr %exn, 0
  %lpad.val17 = insertvalue { ptr, i32 } %lpad.val, i32 %sel, 1
  resume { ptr, i32 } %lpad.val17
}