; Function Attrs: mustprogress uwtable
define dso_local noalias noundef nonnull ptr @_ZN7msdfgen11EdgeSegment6createENS_7Vector2ES1_S1_NS_9EdgeColorE(double %p0.coerce0, double %p0.coerce1, double %p1.coerce0, double %p1.coerce1, double %p2.coerce0, double %p2.coerce1, i32 noundef %edgeColor) local_unnamed_addr #0 align 2 personality ptr @__gxx_personality_v0 {
entry:
  %sub.i = fsub double %p1.coerce0, %p0.coerce0
  %sub3.i = fsub double %p1.coerce1, %p0.coerce1
  %sub.i3 = fsub double %p2.coerce0, %p1.coerce0
  %sub3.i4 = fsub double %p2.coerce1, %p1.coerce1
  %0 = fneg double %sub3.i
  %neg.i = fmul double %sub.i3, %0
  %1 = tail call noundef double @llvm.fmuladd.f64(double %sub.i, double %sub3.i4, double %neg.i)
  %tobool = fcmp une double %1, 0.000000e+00
  br i1 %tobool, label %if.end, label %if.then

if.then:                                          ; preds = %entry
  %call8 = tail call noalias noundef nonnull dereferenceable(48) ptr @_Znwm(i64 noundef 48) #15
  %color.i.i = getelementptr inbounds i8, ptr %call8, i64 8
  store i32 %edgeColor, ptr %color.i.i, align 8
  store ptr getelementptr inbounds ({ [18 x ptr] }, ptr @_ZTVN7msdfgen13LinearSegmentE, i64 0, i32 0, i64 2), ptr %call8, align 8
  %scevgep.i = getelementptr inbounds i8, ptr %call8, i64 16
  store double %p0.coerce0, ptr %scevgep.i, align 8
  %p0.sroa.2.0.arrayidx.sroa_idx.i = getelementptr inbounds i8, ptr %call8, i64 24
  store double %p0.coerce1, ptr %p0.sroa.2.0.arrayidx.sroa_idx.i, align 8
  %arrayidx4.i = getelementptr inbounds i8, ptr %call8, i64 32
  store double %p2.coerce0, ptr %arrayidx4.i, align 8
  %p1.sroa.2.0.arrayidx4.sroa_idx.i = getelementptr inbounds i8, ptr %call8, i64 40
  br label %return

if.end:                                           ; preds = %entry
  %call11 = tail call noalias noundef nonnull dereferenceable(64) ptr @_Znwm(i64 noundef 64) #15
  %color.i.i7 = getelementptr inbounds i8, ptr %call11, i64 8
  store i32 %edgeColor, ptr %color.i.i7, align 8
  store ptr getelementptr inbounds ({ [18 x ptr] }, ptr @_ZTVN7msdfgen16QuadraticSegmentE, i64 0, i32 0, i64 2), ptr %call11, align 8
  %scevgep.i8 = getelementptr inbounds i8, ptr %call11, i64 16
  store double %p0.coerce0, ptr %scevgep.i8, align 8
  %p0.sroa.2.0.arrayidx.sroa_idx.i9 = getelementptr inbounds i8, ptr %call11, i64 24
  store double %p0.coerce1, ptr %p0.sroa.2.0.arrayidx.sroa_idx.i9, align 8
  %arrayidx5.i = getelementptr inbounds i8, ptr %call11, i64 32
  store double %p1.coerce0, ptr %arrayidx5.i, align 8
  %p1.sroa.2.0.arrayidx5.sroa_idx.i = getelementptr inbounds i8, ptr %call11, i64 40
  store double %p1.coerce1, ptr %p1.sroa.2.0.arrayidx5.sroa_idx.i, align 8
  %arrayidx7.i = getelementptr inbounds i8, ptr %call11, i64 48
  store double %p2.coerce0, ptr %arrayidx7.i, align 8
  %p2.sroa.2.0.arrayidx7.sroa_idx.i = getelementptr inbounds i8, ptr %call11, i64 56
  br label %return

return:                                           ; preds = %if.end, %if.then
  %p2.sroa.2.0.arrayidx7.sroa_idx.i.sink = phi ptr [ %p2.sroa.2.0.arrayidx7.sroa_idx.i, %if.end ], [ %p1.sroa.2.0.arrayidx4.sroa_idx.i, %if.then ]
  %retval.0 = phi ptr [ %call11, %if.end ], [ %call8, %if.then ]
  store double %p2.coerce1, ptr %p2.sroa.2.0.arrayidx7.sroa_idx.i.sink, align 8
  ret ptr %retval.0
}